(lp0
ccopy_reg
_reconstructor
p1
(cgeometry_msgs.msg._Pose
Pose
p2
c__builtin__
object
p3
Ntp4
Rp5
(lp6
g1
(cgeometry_msgs.msg._Point
Point
p7
g3
Ntp8
Rp9
(lp10
F-0.5
aF0.1
aF0.0
abag1
(cgeometry_msgs.msg._Quaternion
Quaternion
p11
g3
Ntp12
Rp13
(lp14
F0.0
aF0.0
aF0.0
aF1.0
ababag1
(g2
g3
Ntp15
Rp16
(lp17
g1
(g7
g3
Ntp18
Rp19
(lp20
F-0.501899760638067
aF0.0899812773384056
aF0.0
abag1
(g11
g3
Ntp21
Rp22
(lp23
F0.0
aF0.0
aF0.009999225655206723
aF0.9999500064934728
ababag1
(g2
g3
Ntp24
Rp25
(lp26
g1
(g7
g3
Ntp27
Rp28
(lp29
F-0.5035987924621523
aF0.0799265677397827
aF0.0
abag1
(g11
g3
Ntp30
Rp31
(lp32
F0.0
aF0.0
aF0.019997451517707317
aF0.9998000309725925
ababag1
(g2
g3
Ntp33
Rp34
(lp35
g1
(g7
g3
Ntp36
Rp37
(lp38
F-0.5050964159647731
aF0.06983989246512991
aF0.0
abag1
(g11
g3
Ntp39
Rp40
(lp41
F0.0
aF0.0
aF0.029993677894761962
aF0.9995500884329636
ababag1
(g2
g3
Ntp42
Rp43
(lp44
g1
(g7
g3
Ntp45
Rp46
(lp47
F-0.506392032189299
aF0.05972528555973613
aF0.0
abag1
(g11
g3
Ntp48
Rp49
(lp50
F0.0
aF0.0
aF0.0399869052935534
aF0.9992002038655939
ababag1
(g2
g3
Ntp51
Rp52
(lp53
g1
(g7
g3
Ntp54
Rp55
(lp56
F-0.5074851229694972
aF0.04958679223981233
aF0.0
abag1
(g11
g3
Ntp57
Rp58
(lp59
F0.0
aF0.0
aF0.049976134521123226
aF0.9987504122543963
ababag1
(g2
g3
Ntp60
Rp61
(lp62
g1
(g7
g3
Ntp63
Rp64
(lp65
F-0.5083752511367675
aF0.039428467274655626
aF0.0
abag1
(g11
g3
Ntp66
Rp67
(lp68
F0.0
aF0.0
aF0.05996036678427829
aF0.9982007585726905
ababag1
(g2
g3
Ntp69
Rp70
(lp71
g1
(g7
g3
Ntp72
Rp73
(lp74
F-0.509062060694982
aF0.029254373364992745
aF0.0
abag1
(g11
g3
Ntp75
Rp76
(lp77
F0.0
aF0.0
aF0.06993860378945695
aF0.9975512977787064
ababag1
(g2
g3
Ntp78
Rp79
(lp80
g1
(g7
g3
Ntp81
Rp82
(lp83
F-0.5095452769628622
aF0.019068579518151454
aF0.0
abag1
(g11
g3
Ntp84
Rp85
(lp86
F0.0
aF0.0
aF0.0799098478425455
aF0.9968020948100887
ababag1
(g2
g3
Ntp87
Rp88
(lp89
g1
(g7
g3
Ntp90
Rp91
(lp92
F-0.5098247066838336
aF0.008875159420709572
aF0.0
abag1
(g11
g3
Ntp93
Rp94
(lp95
F0.0
aF0.0
aF0.08987310194863463
aF0.9959532245774046
ababag1
(g2
g3
Ntp96
Rp97
(lp98
g1
(g7
g3
Ntp99
Rp100
(lp101
F-0.5099002381033173
aF-0.0013218101907271906
aF0.0
abag1
(g11
g3
Ntp102
Rp103
(lp104
F0.0
aF0.0
aF0.09982736991170599
aF0.9950047719566532
ababag1
(g2
g3
Ntp105
Rp106
(lp107
g1
(g7
g3
Ntp108
Rp109
(lp110
F-0.5097718410134243
aF-0.01151825115996745
aF0.0
abag1
(g11
g3
Ntp111
Rp112
(lp113
F0.0
aF0.0
aF0.1097716564342388
aF0.9939568317807789
ababag1
(g2
g3
Ntp114
Rp115
(lp116
g1
(g7
g3
Ntp117
Rp118
(lp119
F-0.5094395667650369
aF-0.021710085542243893
aF0.0
abag1
(g11
g3
Ntp120
Rp121
(lp122
F0.0
aF0.0
aF0.1197049672167267
aF0.9928095088301896
ababag1
(g2
g3
Ntp123
Rp124
(lp125
g1
(g7
g3
Ntp126
Rp127
(lp128
F-0.5089035482472717
aF-0.03189323723513875
aF0.0
abag1
(g11
g3
Ntp129
Rp130
(lp131
F0.0
aF0.0
aF0.12962630905709482
aF0.9915629178222805
ababag1
(g2
g3
Ntp132
Rp133
(lp134
g1
(g7
g3
Ntp135
Rp136
(lp137
F-0.508163999834332
aF-0.04206363360877198
aF0.0
abag1
(g11
g3
Ntp138
Rp139
(lp140
F0.0
aF0.0
aF0.13953468995000706
aF0.9902171833999627
ababag1
(g2
g3
Ntp141
Rp142
(lp143
g1
(g7
g3
Ntp144
Rp145
(lp146
F-0.5072212172997717
aF-0.05221720713460129
aF0.0
abag1
(g11
g3
Ntp147
Rp148
(lp149
F0.0
aF0.0
aF0.1494291191860537
aF0.9887724401192016
ababag1
(g2
g3
Ntp150
Rp151
(lp152
g1
(g7
g3
Ntp153
Rp154
(lp155
F-0.5060755776982034
aF-0.062349897012181354
aF0.0
abag1
(g11
g3
Ntp156
Rp157
(lp158
F0.0
aF0.0
aF0.15930860745080963
aF0.9872288324355625
ababag1
(g2
g3
Ntp159
Rp160
(lp161
g1
(g7
g3
Ntp162
Rp163
(lp164
F-0.5047275392145014
aF-0.0724576507932324
aF0.0
abag1
(g11
g3
Ntp165
Rp166
(lp167
F0.0
aF0.0
aF0.16917216692375261
aF0.9855865146897669
ababag1
(g2
g3
Ntp168
Rp169
(lp170
g1
(g7
g3
Ntp171
Rp172
(lp173
F-0.5031776409805542
aF-0.08253642600236874
aF0.0
abag1
(g11
g3
Ntp174
Rp175
(lp176
F0.0
aF0.0
aF0.179018811377033
aF0.9838456510922606
ababag1
(g2
g3
Ntp177
Rp178
(lp179
g1
(g7
g3
Ntp180
Rp181
(lp182
F-0.501426502859647
aF-0.09258219175383835
aF0.0
abag1
(g11
g3
Ntp183
Rp184
(lp185
F0.0
aF0.0
aF0.18884755627408323
aF0.9820064157067951
ababag1
(g2
g3
Ntp186
Rp187
(lp188
g1
(g7
g3
Ntp189
Rp190
(lp191
F-0.49947482519855324
aF-0.10259093036362739
aF0.0
abag1
(g11
g3
Ntp192
Rp193
(lp194
F0.0
aF0.0
aF0.19865741886805896
aF0.9800689924330228
ababag1
(g2
g3
Ntp195
Rp196
(lp197
g1
(g7
g3
Ntp198
Rp199
(lp200
F-0.4973233885474407
aF-0.11255863895628516
aF0.0
abag1
(g11
g3
Ntp201
Rp202
(lp203
F0.0
aF0.0
aF0.20844741830010097
aF0.9780335749881098
ababag1
(g2
g3
Ntp204
Rp205
(lp206
g1
(g7
g3
Ntp207
Rp208
(lp209
F-0.49497305334769837
aF-0.12248133106582615
aF0.0
abag1
(g11
g3
Ntp210
Rp211
(lp212
F0.0
aF0.0
aF0.21821657569740832
aF0.9759003668873668
ababag1
(g2
g3
Ntp213
Rp214
(lp215
g1
(g7
g3
Ntp216
Rp217
(lp218
F-0.49242475958781445
aF-0.13235503823006944
aF0.0
abag1
(g11
g3
Ntp219
Rp220
(lp221
F0.0
aF0.0
aF0.22796391427111257
aF0.9736695814239001
ababag1
(g2
g3
Ntp222
Rp223
(lp224
g1
(g7
g3
Ntp225
Rp226
(lp227
F-0.48967952642743817
aF-0.14217581157777812
aF0.0
abag1
(g11
g3
Ntp228
Rp229
(lp230
F0.0
aF0.0
aF0.23768845941394476
aF0.9713414416472848
ababag1
(g2
g3
Ntp231
Rp232
(lp233
g1
(g7
g3
Ntp234
Rp235
(lp236
F-0.4867384517897798
aF-0.15193972340796263
aF0.0
abag1
(g11
g3
Ntp237
Rp238
(lp239
F0.0
aF0.0
aF0.24738923879768263
aF0.9689161803412631
ababag1
(g2
g3
Ntp240
Rp241
(lp242
g1
(g7
g3
Ntp243
Rp244
(lp245
F-0.48360271192250903
aF-0.1616428687607182
aF0.0
abag1
(g11
g3
Ntp246
Rp247
(lp248
F0.0
aF0.0
aF0.2570652824703713
aF0.9663940400004691
ababag1
(g2
g3
Ntp249
Rp250
(lp251
g1
(g7
g3
Ntp252
Rp253
(lp254
F-0.48027356092732865
aF-0.17128136697896698
aF0.0
abag1
(g11
g3
Ntp255
Rp256
(lp257
F0.0
aF0.0
aF0.2667156229533058
aF0.9637752728061817
ababag1
(g2
g3
Ntp258
Rp259
(lp260
g1
(g7
g3
Ntp261
Rp262
(lp263
F-0.4767523302584119
aF-0.18085136326048
aF0.0
abag1
(g11
g3
Ntp264
Rp265
(lp266
F0.0
aF0.0
aF0.27633929533776613
aF0.9610601406011108
ababag1
(g2
g3
Ntp267
Rp268
(lp269
g1
(g7
g3
Ntp270
Rp271
(lp272
F-0.4730404281899032
aF-0.19034903019956007
aF0.0
abag1
(g11
g3
Ntp273
Rp274
(lp275
F0.0
aF0.0
aF0.2859353373814961
aF0.9582489148632155
ababag1
(g2
g3
Ntp276
Rp277
(lp278
g1
(g7
g3
Ntp279
Rp280
(lp281
F-0.46913933925269535
aF-0.1997705693177662
aF0.0
abag1
(g11
g3
Ntp282
Rp283
(lp284
F0.0
aF0.0
aF0.29550278960491466
aF0.9553418766785603
ababag1
(g2
g3
Ntp285
Rp286
(lp287
g1
(g7
g3
Ntp288
Rp289
(lp290
F-0.46505062364070954
aF-0.20911221258307017
aF0.0
abag1
(g11
g3
Ntp291
Rp292
(lp293
F0.0
aF0.0
aF0.30504069538705136
aF0.9523393167132103
ababag1
(g2
g3
Ntp294
Rp295
(lp296
g1
(g7
g3
Ntp297
Rp298
(lp299
F-0.4607759165869144
aF-0.21837022391683553
aF0.0
abag1
(g11
g3
Ntp300
Rp301
(lp302
F0.0
aF0.0
aF0.3145481010611962
aF0.9492415351841678
ababag1
(g2
g3
Ntp303
Rp304
(lp305
g1
(g7
g3
Ntp306
Rp307
(lp308
F-0.45631692770933396
aF-0.22754090068801808
aF0.0
abag1
(g11
g3
Ntp309
Rp310
(lp311
F0.0
aF0.0
aF0.3240240560102541
aF0.9460488418293549
ababag1
(g2
g3
Ntp312
Rp313
(lp314
g1
(g7
g3
Ntp315
Rp316
(lp317
F-0.4516754403273062
aF-0.23662057519398863
aF0.0
abag1
(g11
g3
Ntp318
Rp319
(lp320
F0.0
aF0.0
aF0.3334676127617936
aF0.942761555876644
ababag1
(g2
g3
Ntp321
Rp322
(lp323
g1
(g7
g3
Ntp324
Rp325
(lp326
F-0.44685331074826634
aF-0.2456056161273869
aF0.0
abag1
(g11
g3
Ntp327
Rp328
(lp329
F0.0
aF0.0
aF0.3428778270827827
aF0.9393800060119384
ababag1
(g2
g3
Ntp330
Rp331
(lp332
g1
(g7
g3
Ntp333
Rp334
(lp335
F-0.44185246752533813
aF-0.25449243002841954
aF0.0
abag1
(g11
g3
Ntp336
Rp337
(lp338
F0.0
aF0.0
aF0.3522537580739992
aF0.9359045303463086
ababag1
(g2
g3
Ntp339
Rp340
(lp341
g1
(g7
g3
Ntp342
Rp343
(lp344
F-0.4366749106860326
aF-0.26327746272202157
aF0.0
abag1
(g11
g3
Ntp345
Rp346
(lp347
F0.0
aF0.0
aF0.3615944682641088
aF0.9323354763821853
ababag1
(g2
g3
Ntp348
Rp349
(lp350
g1
(g7
g3
Ntp351
Rp352
(lp353
F-0.4313227109323609
aF-0.27195720073930574
aF0.0
abag1
(g11
g3
Ntp354
Rp355
(lp356
F0.0
aF0.0
aF0.3708990237033995
aF0.9286732009786139
ababag1
(g2
g3
Ntp357
Rp358
(lp359
g1
(g7
g3
Ntp360
Rp361
(lp362
F-0.4257980088126813
aF-0.28052817272273345
aF0.0
abag1
(g11
g3
Ntp363
Rp364
(lp365
F0.0
aF0.0
aF0.38016649405716535
aF0.924918070315573
ababag1
(g2
g3
Ntp366
Rp367
(lp368
g1
(g7
g3
Ntp369
Rp370
(lp371
F-0.4201030138656131
aF-0.28898695081444165
aF0.0
abag1
(g11
g3
Ntp372
Rp373
(lp374
F0.0
aF0.0
aF0.38939595269872707
aF0.9210704598573611
ababa.