(lp0
ccopy_reg
_reconstructor
p1
(cgeometry_msgs.msg._Pose
Pose
p2
c__builtin__
object
p3
Ntp4
Rp5
(lp6
g1
(cgeometry_msgs.msg._Point
Point
p7
g3
Ntp8
Rp9
(lp10
F-0.355
aF0.025
aF0.0
abag1
(cgeometry_msgs.msg._Quaternion
Quaternion
p11
g3
Ntp12
Rp13
(lp14
F0.0
aF0.0
aF0.0
aF1.0
ababag1
(g2
g3
Ntp15
Rp16
(lp17
g1
(g7
g3
Ntp18
Rp19
(lp20
F-0.35542893126640307
aF0.017896223591096425
aF0.0
abag1
(g11
g3
Ntp21
Rp22
(lp23
F0.0
aF0.0
aF0.009998778182266198
aF0.9999500109679792
ababag1
(g2
g3
Ntp24
Rp25
(lp26
g1
(g7
g3
Ntp27
Rp28
(lp29
F-0.35571572569972687
aF0.01078529044192342
aF0.0
abag1
(g11
g3
Ntp30
Rp31
(lp32
F0.0
aF0.0
aF0.01999655670604695
aF0.9998000488697237
ababag1
(g2
g3
Ntp33
Rp34
(lp35
g1
(g7
g3
Ntp36
Rp37
(lp38
F-0.3558602686102293
aF0.0036700442307219666
aF0.0
abag1
(g11
g3
Ntp39
Rp40
(lp41
F0.0
aF0.0
aF0.029992336012800734
aF0.9995501286981535
ababag1
(g2
g3
Ntp42
Rp43
(lp44
g1
(g7
g3
Ntp45
Rp46
(lp47
F-0.3558625021948736
aF-0.0034466696394636863
aF0.0
abag1
(g11
g3
Ntp48
Rp49
(lp50
F0.0
aF0.0
aF0.03998511674386389
aF0.9992002754398037
ababag1
(g2
g3
Ntp51
Rp52
(lp53
g1
(g7
g3
Ntp54
Rp55
(lp56
F-0.35572242556044414
aF-0.010562005178669127
aF0.0
abag1
(g11
g3
Ntp57
Rp58
(lp59
F0.0
aF0.0
aF0.04997389984036451
aF0.9987505240723257
ababag1
(g2
g3
Ntp60
Rp61
(lp62
g1
(g7
g3
Ntp63
Rp64
(lp65
F-0.3554400947239039
aF-0.017673116948127662
aF0.0
abag1
(g11
g3
Ntp66
Rp67
(lp68
F0.0
aF0.0
aF0.059957686643106495
aF0.9982009195609904
ababag1
(g2
g3
Ntp69
Rp70
(lp71
g1
(g7
g3
Ntp72
Rp73
(lp74
F-0.3550156225899925
aF-0.02477716119816761
aF0.0
abag1
(g11
g3
Ntp75
Rp76
(lp77
F0.0
aF0.0
aF0.06993547899241347
aF0.9975515168541932
ababag1
(g2
g3
Ntp78
Rp79
(lp80
g1
(g7
g3
Ntp81
Rp82
(lp83
F-0.3544491789060759
aF-0.031871297005434354
aF0.0
abag1
(g11
g3
Ntp84
Rp85
(lp86
F0.0
aF0.0
aF0.07990627932792299
aF0.9968023808779591
ababag1
(g2
g3
Ntp87
Rp88
(lp89
g1
(g7
g3
Ntp90
Rp91
(lp92
F-0.35374099019426364
aF-0.038952687408981876
aF0.0
abag1
(g11
g3
Ntp93
Rp94
(lp95
F0.0
aF0.0
aF0.08986909078832057
aF0.995953586529453
ababag1
(g2
g3
Ntp96
Rp97
(lp98
g1
(g7
g3
Ntp99
Rp100
(lp101
F-0.3528913396608226
aF-0.04601850054477993
aF0.0
abag1
(g11
g3
Ntp102
Rp103
(lp104
F0.0
aF0.0
aF0.09982291731100391
aF0.9950052186694904
ababag1
(g2
g3
Ntp105
Rp106
(lp107
g1
(g7
g3
Ntp108
Rp109
(lp110
F-0.3519005670829218
aF-0.0530659107781829
aF0.0
abag1
(g11
g3
Ntp111
Rp112
(lp113
F0.0
aF0.0
aF0.10976676373166758
aF0.9939573721140542
ababag1
(g2
g3
Ntp114
Rp115
(lp116
g1
(g7
g3
Ntp117
Rp118
(lp119
F-0.3507690686727547
aF-0.060092099833907384
aF0.0
abag1
(g11
g3
Ntp120
Rp121
(lp122
F0.0
aF0.0
aF0.11969963588379721
aF0.9928101516248141
ababag1
(g2
g3
Ntp123
Rp124
(lp125
g1
(g7
g3
Ntp126
Rp127
(lp128
F-0.3494972969190934
aF-0.06709425792306695
aF0.0
abag1
(g11
g3
Ntp129
Rp130
(lp131
F0.0
aF0.0
aF0.12962054069806475
aF0.9915636718986539
ababag1
(g2
g3
Ntp132
Rp133
(lp134
g1
(g7
g3
Ntp135
Rp136
(lp137
F-0.3480857604063372
aF-0.07406958486681292
aF0.0
abag1
(g11
g3
Ntp138
Rp139
(lp140
F0.0
aF0.0
aF0.13952848630161324
aF0.9902180575562034
ababag1
(g2
g3
Ntp141
Rp142
(lp143
g1
(g7
g3
Ntp144
Rp145
(lp146
F-0.34653502361112826
aF-0.08101529121613253
aF0.0
abag1
(g11
g3
Ntp147
Rp148
(lp149
F0.0
aF0.0
aF0.1494224821172227
aF0.9887734431293795
ababag1
(g2
g3
Ntp150
Rp151
(lp152
g1
(g7
g3
Ntp153
Rp154
(lp155
F-0.34484570667661657
aF-0.08792859936735545
aF0.0
abag1
(g11
g3
Ntp156
Rp157
(lp158
F0.0
aF0.0
aF0.1593015389623458
aF0.9872299730479359
ababag1
(g2
g3
Ntp159
Rp160
(lp161
g1
(g7
g3
Ntp162
Rp163
(lp164
F-0.34301848516446304
aF-0.09480674467292412
aF0.0
abag1
(g11
g3
Ntp165
Rp166
(lp167
F0.0
aF0.0
aF0.1691646691480046
aF0.9855878016250232
ababag1
(g2
g3
Ntp168
Rp169
(lp170
g1
(g7
g3
Ntp171
Rp172
(lp173
F-0.34105408978468094
aF-0.10164697654698246
aF0.0
abag1
(g11
g3
Ntp174
Rp175
(lp176
F0.0
aF0.0
aF0.17901088657753778
aF0.9838470930417612
ababag1
(g2
g3
Ntp177
Rp178
(lp179
g1
(g7
g3
Ntp180
Rp181
(lp182
F-0.33895330610342317
aF-0.1084465595653413
aF0.0
abag1
(g11
g3
Ntp183
Rp184
(lp185
F0.0
aF0.0
aF0.1888392068451885
aF0.982008021330824
ababag1
(g2
g3
Ntp186
Rp187
(lp188
g1
(g7
g3
Ntp189
Rp190
(lp191
F-0.33671697422883284
aF-0.11520277455938084
aF0.0
abag1
(g11
g3
Ntp192
Rp193
(lp194
F0.0
aF0.0
aF0.19864864733452384
aF0.980070770359041
ababag1
(g2
g3
Ntp195
Rp196
(lp197
g1
(g7
g3
Ntp198
Rp199
(lp200
F-0.33434598847508196
aF-0.12191291970345214
aF0.0
abag1
(g11
g3
Ntp201
Rp202
(lp203
F0.0
aF0.0
aF0.2084382273166742
aF0.9780355338090138
ababag1
(g2
g3
Ntp204
Rp205
(lp206
g1
(g7
g3
Ntp207
Rp208
(lp209
F-0.33184129700473314
aF-0.12857431159534344
aF0.0
abag1
(g11
g3
Ntp210
Rp211
(lp212
F0.0
aF0.0
aF0.21820696804838513
aF0.9759025151597526
ababag1
(g2
g3
Ntp213
Rp214
(lp215
g1
(g7
g3
Ntp216
Rp217
(lp218
F-0.32920390144956746
aF-0.13518428632937873
aF0.0
abag1
(g11
g3
Ntp219
Rp220
(lp221
F0.0
aF0.0
aF0.2279538928698702
aF0.9736719276663325
ababag1
(g2
g3
Ntp222
Rp223
(lp224
g1
(g7
g3
Ntp225
Rp226
(lp227
F-0.32643485651002935
aF-0.1417402005617198
aF0.0
abag1
(g11
g3
Ntp228
Rp229
(lp230
F0.0
aF0.0
aF0.23767802730245557
aF0.9713439943385727
ababag1
(g2
g3
Ntp231
Rp232
(lp233
g1
(g7
g3
Ntp234
Rp235
(lp236
F-0.32353526953344963
aF-0.14823943256744493
aF0.0
abag1
(g11
g3
Ntp237
Rp238
(lp239
F0.0
aF0.0
aF0.24737839914600587
aF0.9689189479187408
ababag1
(g2
g3
Ntp240
Rp241
(lp242
g1
(g7
g3
Ntp243
Rp244
(lp245
F-0.3205063000712151
aF-0.15467938328898337
aF0.0
abag1
(g11
g3
Ntp246
Rp247
(lp248
F0.0
aF0.0
aF0.2570540385761239
aF0.9663970308582827
ababag1
(g2
g3
Ntp249
Rp250
(lp251
g1
(g7
g3
Ntp252
Rp253
(lp254
F-0.3173491594150606
aF-0.16105747737548365
aF0.0
abag1
(g11
g3
Ntp255
Rp256
(lp257
F0.0
aF0.0
aF0.2667039782411112
aF0.963778495293584
ababag1
(g2
g3
Ntp258
Rp259
(lp260
g1
(g7
g3
Ntp261
Rp262
(lp263
F-0.31406511011267163
aF-0.16737116421270254
aF0.0
abag1
(g11
g3
Ntp264
Rp265
(lp266
F0.0
aF0.0
aF0.2763272533586816
aF0.961063603020761
ababag1
(g2
g3
Ntp267
Rp268
(lp269
g1
(g7
g3
Ntp270
Rp271
(lp272
F-0.3106554654627878
aF-0.17361791894300146
aF0.0
abag1
(g11
g3
Ntp273
Rp274
(lp275
F0.0
aF0.0
aF0.2859229018124194
aF0.9582526254694873
ababag1
(g2
g3
Ntp276
Rp277
(lp278
g1
(g7
g3
Ntp279
Rp280
(lp281
F-0.3071215889900124
aF-0.17979524347504267
aF0.0
abag1
(g11
g3
Ntp282
Rp283
(lp284
F0.0
aF0.0
aF0.29548996424796886
aF0.9553458436758565
ababag1
(g2
g3
Ntp285
Rp286
(lp287
g1
(g7
g3
Ntp288
Rp289
(lp290
F-0.3034648938995354
aF-0.18590066748278156
aF0.0
abag1
(g11
g3
Ntp291
Rp292
(lp293
F0.0
aF0.0
aF0.30502748416894904
aF0.9523435482542849
ababag1
(g2
g3
Ntp294
Rp295
(lp296
g1
(g7
g3
Ntp297
Rp298
(lp299
F-0.29968684251198957
aF-0.19193174939335583
aF0.0
abag1
(g11
g3
Ntp300
Rp301
(lp302
F0.0
aF0.0
aF0.3145345080325827
aF0.9492460393684564
ababag1
(g2
g3
Ntp303
Rp304
(lp305
g1
(g7
g3
Ntp306
Rp307
(lp308
F-0.2957889456786653
aF-0.19788607736347588
aF0.0
abag1
(g11
g3
Ntp309
Rp310
(lp311
F0.0
aF0.0
aF0.32401008534502895
aF0.9460536267013129
ababag1
(g2
g3
Ntp312
Rp313
(lp314
g1
(g7
g3
Ntp315
Rp316
(lp317
F-0.2917727621773177
aF-0.2037612702439264
aF0.0
abag1
(g11
g3
Ntp318
Rp319
(lp320
F0.0
aF0.0
aF0.3334532687564125
aF0.9427666294240923
ababag1
(g2
g3
Ntp321
Rp322
(lp323
g1
(g7
g3
Ntp324
Rp325
(lp326
F-0.2876398980888077
aF-0.20955497853179322
aF0.0
abag1
(g11
g3
Ntp327
Rp328
(lp329
F0.0
aF0.0
aF0.34286311415553744
aF0.939385376164419
ababag1
(g2
g3
Ntp330
Rp331
(lp332
g1
(g7
g3
Ntp333
Rp334
(lp335
F-0.2833920061548268
aF-0.21526488531003524
aF0.0
abag1
(g11
g3
Ntp336
Rp337
(lp338
F0.0
aF0.0
aF0.352238680764278
aF0.9359102049734478
ababag1
(g2
g3
Ntp339
Rp340
(lp341
g1
(g7
g3
Ntp342
Rp343
(lp344
F-0.27903078511696205
aF-0.22088870717402403
aF0.0
abag1
(g11
g3
Ntp345
Rp346
(lp347
F0.0
aF0.0
aF0.36157903123163504
aF0.9323414632920668
ababag1
(g2
g3
Ntp348
Rp349
(lp350
g1
(g7
g3
Ntp351
Rp352
(lp353
F-0.27455797903736523
aF-0.22642419514468345
aF0.0
abag1
(g11
g3
Ntp354
Rp355
(lp356
F0.0
aF0.0
aF0.37088323172745163
aF0.9286795079161602
ababag1
(g2
g3
Ntp357
Rp358
(lp359
g1
(g7
g3
Ntp360
Rp361
(lp362
F-0.2699753766012986
aF-0.2318691355678607
aF0.0
abag1
(g11
g3
Ntp363
Rp364
(lp365
F0.0
aF0.0
aF0.3801503520357747
aF0.9249247049609371
ababag1
(g2
g3
Ntp366
Rp367
(lp368
g1
(g7
g3
Ntp369
Rp370
(lp371
F-0.2652848104018356
aF-0.237221350999572
aF0.0
abag1
(g11
g3
Ntp372
Rp373
(lp374
F0.0
aF0.0
aF0.3893794656478565
aF0.9210774298243279
ababa.