(lp0
ccopy_reg
_reconstructor
p1
(cgeometry_msgs.msg._Pose
Pose
p2
c__builtin__
object
p3
Ntp4
Rp5
(lp6
g1
(cgeometry_msgs.msg._Point
Point
p7
g3
Ntp8
Rp9
(lp10
F-0.355
aF0.025
aF0.0
abag1
(cgeometry_msgs.msg._Quaternion
Quaternion
p11
g3
Ntp12
Rp13
(lp14
F0.0
aF0.0
aF0.0
aF1.0
ababag1
(g2
g3
Ntp15
Rp16
(lp17
g1
(g7
g3
Ntp18
Rp19
(lp20
F-0.3553487157460036
aF0.019423959886334465
aF0.0
abag1
(g11
g3
Ntp21
Rp22
(lp23
F0.0
aF0.0
aF0.007849480410674596
aF0.9999691923540857
ababag1
(g2
g3
Ntp24
Rp25
(lp26
g1
(g7
g3
Ntp27
Rp28
(lp29
F-0.35560985318178234
aF0.01384313259458345
aF0.0
abag1
(g11
g3
Ntp30
Rp31
(lp32
F0.0
aF0.0
aF0.015698477173322983
aF0.9998767713145649
ababag1
(g2
g3
Ntp33
Rp34
(lp35
g1
(g7
g3
Ntp36
Rp37
(lp38
F-0.35578334794809024
aF0.00825889356076857
aF0.0
abag1
(g11
g3
Ntp39
Rp40
(lp41
F0.0
aF0.0
aF0.023546506669719074
aF0.9997227425759868
ababag1
(g2
g3
Ntp42
Rp43
(lp44
g1
(g7
g3
Ntp45
Rp46
(lp47
F-0.35586915728586355
aF0.0026726190617604034
aF0.0
abag1
(g11
g3
Ntp48
Rp49
(lp50
F0.0
aF0.0
aF0.031393085341235166
aF0.9995071156288773
ababag1
(g2
g3
Ntp51
Rp52
(lp53
g1
(g7
g3
Ntp54
Rp55
(lp56
F-0.3558672600467584
aF-0.002914314123915067
aF0.0
abag1
(g11
g3
Ntp57
Rp58
(lp59
F0.0
aF0.0
aF0.03923772971863656
aF0.9992299037591535
ababag1
(g2
g3
Ntp60
Rp61
(lp62
g1
(g7
g3
Ntp63
Rp64
(lp65
F-0.35577765669836325
aF-0.008500529055393662
aF0.0
abag1
(g11
g3
Ntp66
Rp67
(lp68
F0.0
aF0.0
aF0.04707995645187065
aF0.9988911240473057
ababag1
(g2
g3
Ntp69
Rp70
(lp71
g1
(g7
g3
Ntp72
Rp73
(lp74
F-0.3556003693240838
aF-0.014084648968830264
aF0.0
abag1
(g11
g3
Ntp75
Rp76
(lp77
F0.0
aF0.0
aF0.054919282339848684
aF0.9984907973673448
ababag1
(g2
g3
Ntp78
Rp79
(lp80
g1
(g7
g3
Ntp81
Rp82
(lp83
F-0.3553354416177003
aF-0.019665297616712363
aF0.0
abag1
(g11
g3
Ntp84
Rp85
(lp86
F0.0
aF0.0
aF0.0627552243602183
aF0.9980289483855158
ababag1
(g2
g3
Ntp87
Rp88
(lp89
g1
(g7
g3
Ntp90
Rp91
(lp92
F-0.35498293887259874
aF-0.02524109960704647
aF0.0
abag1
(g11
g3
Ntp93
Rp94
(lp95
F0.0
aF0.0
aF0.07058729969912521
aF0.9975056055587788
ababag1
(g2
g3
Ntp96
Rp97
(lp98
g1
(g7
g3
Ntp99
Rp100
(lp101
F-0.3545429479656787
aF-0.03081068074233357
aF0.0
abag1
(g11
g3
Ntp102
Rp103
(lp104
F0.0
aF0.0
aF0.07841502578096177
aF0.9969208011330545
ababag1
(g2
g3
Ntp105
Rp106
(lp107
g1
(g7
g3
Ntp108
Rp109
(lp110
F-0.3540155773359426
aF-0.036372668358250176
aF0.0
abag1
(g11
g3
Ntp111
Rp112
(lp113
F0.0
aF0.0
aF0.08623792029810108
aF0.9962745711412383
ababag1
(g2
g3
Ntp114
Rp115
(lp116
g1
(g7
g3
Ntp117
Rp118
(lp119
F-0.3534009569577691
aF-0.04192569166195167
aF0.0
abag1
(g11
g3
Ntp120
Rp121
(lp122
F0.0
aF0.0
aF0.09405550124061453
aF0.99556695540098
ababag1
(g2
g3
Ntp123
Rp124
(lp125
g1
(g7
g3
Ntp126
Rp127
(lp128
F-0.3526992383088807
aF-0.04746838206991426
aF0.0
abag1
(g11
g3
Ntp129
Rp130
(lp131
F0.0
aF0.0
aF0.10186728692597095
aF0.9947979975122296
ababag1
(g2
g3
Ntp132
Rp133
(lp134
g1
(g7
g3
Ntp135
Rp136
(lp137
F-0.3519105943330108
aF-0.05299937354523242
aF0.0
abag1
(g11
g3
Ntp138
Rp139
(lp140
F0.0
aF0.0
aF0.10967279602871569
aF0.993967744854552
ababag1
(g2
g3
Ntp141
Rp142
(lp143
g1
(g7
g3
Ntp144
Rp145
(lp146
F-0.3510352193972803
aF-0.058517302934288834
aF0.0
abag1
(g11
g3
Ntp147
Rp148
(lp149
F0.0
aF0.0
aF0.11747154761012739
aF0.993076248584207
ababag1
(g2
g3
Ntp150
Rp151
(lp152
g1
(g7
g3
Ntp153
Rp154
(lp155
F-0.3500733292442941
aF-0.06402081030271367
aF0.0
abag1
(g11
g3
Ntp156
Rp157
(lp158
F0.0
aF0.0
aF0.12526306114785157
aF0.9921235636309973
ababag1
(g2
g3
Ntp159
Rp160
(lp161
g1
(g7
g3
Ntp162
Rp163
(lp164
F-0.3490251609389706
aF-0.06950853927055031
aF0.0
abag1
(g11
g3
Ntp165
Rp166
(lp167
F0.0
aF0.0
aF0.13304685656550777
aF0.9911097486948846
ababag1
(g2
g3
Ntp168
Rp169
(lp170
g1
(g7
g3
Ntp171
Rp172
(lp173
F-0.34789097281011455
aF-0.07497913734654528
aF0.0
abag1
(g11
g3
Ntp174
Rp175
(lp176
F0.0
aF0.0
aF0.1408224542622698
aF0.9900348662423717
ababag1
(g2
g3
Ntp177
Rp178
(lp179
g1
(g7
g3
Ntp180
Rp181
(lp182
F-0.3466710443867503
aF-0.0804312562614797
aF0.0
abag1
(g11
g3
Ntp183
Rp184
(lp185
F0.0
aF0.0
aF0.14858937514241644
aF0.988898982502655
ababag1
(g2
g3
Ntp186
Rp187
(lp188
g1
(g7
g3
Ntp189
Rp190
(lp191
F-0.34536567632922954
aF-0.08586355230046017
aF0.0
abag1
(g11
g3
Ntp192
Rp193
(lp194
F0.0
aF0.0
aF0.15634714064485108
aF0.9877021674635421
ababag1
(g2
g3
Ntp195
Rp196
(lp197
g1
(g7
g3
Ntp198
Rp199
(lp200
F-0.34397519035513185
aF-0.09127468663408705
aF0.0
abag1
(g11
g3
Ntp201
Rp202
(lp203
F0.0
aF0.0
aF0.16409527277258826
aF0.9864444948671415
ababag1
(g2
g3
Ntp204
Rp205
(lp206
g1
(g7
g3
Ntp207
Rp208
(lp209
F-0.34249992915997474
aF-0.09666332564841909
aF0.0
abag1
(g11
g3
Ntp210
Rp211
(lp212
F0.0
aF0.0
aF0.17183329412220594
aF0.9851260422053167
ababag1
(g2
g3
Ntp213
Rp214
(lp215
g1
(g7
g3
Ntp216
Rp217
(lp218
F-0.3409402563327535
aF-0.10202814127365226
aF0.0
abag1
(g11
g3
Ntp219
Rp220
(lp221
F0.0
aF0.0
aF0.17956072791326033
aF0.9837468907149136
ababag1
(g2
g3
Ntp222
Rp223
(lp224
g1
(g7
g3
Ntp225
Rp226
(lp227
F-0.33929655626633265
aF-0.10736781131143233
aF0.0
abag1
(g11
g3
Ntp228
Rp229
(lp230
F0.0
aF0.0
aF0.1872770980176634
aF0.9823071253727536
ababag1
(g2
g3
Ntp231
Rp232
(lp233
g1
(g7
g3
Ntp234
Rp235
(lp236
F-0.3375692340627091
aF-0.11268101976072051
aF0.0
abag1
(g11
g3
Ntp237
Rp238
(lp239
F0.0
aF0.0
aF0.19498192898901937
aF0.9808068348903982
ababag1
(g2
g3
Ntp240
Rp241
(lp242
g1
(g7
g3
Ntp243
Rp244
(lp245
F-0.3357587154331718
aF-0.11796645714213147
aF0.0
abag1
(g11
g3
Ntp246
Rp247
(lp248
F0.0
aF0.0
aF0.2026747460919193
aF0.9792461117086838
ababag1
(g2
g3
Ntp249
Rp250
(lp251
g1
(g7
g3
Ntp252
Rp253
(lp254
F-0.3338654465933821
aF-0.12322282082066431
aF0.0
abag1
(g11
g3
Ntp255
Rp256
(lp257
F0.0
aF0.0
aF0.21035507533119252
aF0.9776250519920243
ababag1
(g2
g3
Ntp258
Rp259
(lp260
g1
(g7
g3
Ntp261
Rp262
(lp263
F-0.3318898941534005
aF-0.12844881532674646
aF0.0
abag1
(g11
g3
Ntp264
Rp265
(lp266
F0.0
aF0.0
aF0.21802244348111155
aF0.9759437556224875
ababag1
(g2
g3
Ntp267
Rp268
(lp269
g1
(g7
g3
Ntp270
Rp271
(lp272
F-0.32983254500268744
aF-0.13364315267551174
aF0.0
abag1
(g11
g3
Ntp273
Rp274
(lp275
F0.0
aF0.0
aF0.2256763781145503
aF0.9742023261936396
ababag1
(g2
g3
Ntp276
Rp277
(lp278
g1
(g7
g3
Ntp279
Rp280
(lp281
F-0.32769390619010563
aF-0.13880455268423386
aF0.0
abag1
(g11
g3
Ntp282
Rp283
(lp284
F0.0
aF0.0
aF0.23331640763209271
aF0.9724008710041632
ababag1
(g2
g3
Ntp285
Rp286
(lp287
g1
(g7
g3
Ntp288
Rp289
(lp290
F-0.32547450479895396
aF-0.1439317432878366
aF0.0
abag1
(g11
g3
Ntp291
Rp292
(lp293
F0.0
aF0.0
aF0.2409420612910905
aF0.9705395010512454
ababag1
(g2
g3
Ntp294
Rp295
(lp296
g1
(g7
g3
Ntp297
Rp298
(lp299
F-0.32317488781706427
aF-0.1490234608524038
aF0.0
abag1
(g11
g3
Ntp300
Rp301
(lp302
F0.0
aF0.0
aF0.24855286923466804
aF0.9686183310237392
ababag1
(g2
g3
Ntp303
Rp304
(lp305
g1
(g7
g3
Ntp306
Rp307
(lp308
F-0.32079562200199185
aF-0.1540784504866114
aF0.0
abag1
(g11
g3
Ntp309
Rp310
(lp311
F0.0
aF0.0
aF0.2561483625206728
aF0.9666374792950965
ababag1
(g2
g3
Ntp312
Rp313
(lp314
g1
(g7
g3
Ntp315
Rp316
(lp317
F-0.3183372937413342
aF-0.15909546635100427
aF0.0
abag1
(g11
g3
Ntp318
Rp319
(lp320
F0.0
aF0.0
aF0.26372807315056945
aF0.9645970679160745
ababag1
(g2
g3
Ntp321
Rp322
(lp323
g1
(g7
g3
Ntp324
Rp325
(lp326
F-0.31580050890821104
aF-0.16407327196504287
aF0.0
abag1
(g11
g3
Ntp327
Rp328
(lp329
F0.0
aF0.0
aF0.2712915340982756
aF0.9624972226072157
ababag1
(g2
g3
Ntp330
Rp331
(lp332
g1
(g7
g3
Ntp333
Rp334
(lp335
F-0.31318589271194286
aF-0.16901064051184295
aF0.0
abag1
(g11
g3
Ntp336
Rp337
(lp338
F0.0
aF0.0
aF0.2788382793389375
aF0.960338072751102
ababag1
(g2
g3
Ntp339
Rp340
(lp341
g1
(g7
g3
Ntp342
Rp343
(lp344
F-0.3104940895439633
aF-0.17390635514053332
aF0.0
abag1
(g11
g3
Ntp345
Rp346
(lp347
F0.0
aF0.0
aF0.28636784387764513
aF0.9581197513843813
ababag1
(g2
g3
Ntp348
Rp349
(lp350
g1
(g7
g3
Ntp351
Rp352
(lp353
F-0.307725762819004
aF-0.17875920926615815
aF0.0
abag1
(g11
g3
Ntp354
Rp355
(lp356
F0.0
aF0.0
aF0.2938797637780818
aF0.9558423951895725
ababag1
(g2
g3
Ntp357
Rp358
(lp359
g1
(g7
g3
Ntp360
Rp361
(lp362
F-0.30488159481159116
aF-0.18356800686704844
aF0.0
abag1
(g11
g3
Ntp363
Rp364
(lp365
F0.0
aF0.0
aF0.3013735761911108
aF0.9535061444866418
ababag1
(g2
g3
Ntp366
Rp367
(lp368
g1
(g7
g3
Ntp369
Rp370
(lp371
F-0.30196228648789436
aF-0.18833156277959032
aF0.0
abag1
(g11
g3
Ntp372
Rp373
(lp374
F0.0
aF0.0
aF0.3088488193832934
aF0.9511111432243583
ababag1
(g2
g3
Ntp375
Rp376
(lp377
g1
(g7
g3
Ntp378
Rp379
(lp380
F-0.2989685573329679
aF-0.19304870299031762
aF0.0
abag1
(g11
g3
Ntp381
Rp382
(lp383
F0.0
aF0.0
aF0.3163050327653386
aF0.9486575389714236
ababag1
(g2
g3
Ntp384
Rp385
(lp386
g1
(g7
g3
Ntp387
Rp388
(lp389
F-0.2959011451734282
aF-0.19771826492525607
aF0.0
abag1
(g11
g3
Ntp390
Rp391
(lp392
F0.0
aF0.0
aF0.3237417569204832
aF0.9461454829073798
ababag1
(g2
g3
Ntp393
Rp394
(lp395
g1
(g7
g3
Ntp396
Rp397
(lp398
F-0.29276080599561155
aF-0.20233909773644804
aF0.0
abag1
(g11
g3
Ntp399
Rp400
(lp401
F0.0
aF0.0
aF0.3311585336327981
aF0.9435751298132942
ababag1
(g2
g3
Ntp402
Rp403
(lp404
g1
(g7
g3
Ntp405
Rp406
(lp407
F-0.28954831375925544
aF-0.2069100625855876
aF0.0
abag1
(g11
g3
Ntp408
Rp409
(lp410
F0.0
aF0.0
aF0.33855490591542164
aF0.940946638062223
ababag1
(g2
g3
Ntp411
Rp412
(lp413
g1
(g7
g3
Ntp414
Rp415
(lp416
F-0.28626446020675017
aF-0.2114300329246957
aF0.0
abag1
(g11
g3
Ntp417
Rp418
(lp419
F0.0
aF0.0
aF0.34593041803871716
aF0.9382601696094525
ababag1
(g2
g3
Ntp420
Rp421
(lp422
g1
(g7
g3
Ntp423
Rp424
(lp425
F-0.2829100546680089
aF-0.2158978947737662
aF0.0
abag1
(g11
g3
Ntp426
Rp427
(lp428
F0.0
aF0.0
aF0.3532846155583529
aF0.9355158899825202
ababag1
(g2
g3
Ntp429
Rp430
(lp431
g1
(g7
g3
Ntp432
Rp433
(lp434
F-0.2794859238610013
aF-0.2203125469953143
aF0.0
abag1
(g11
g3
Ntp435
Rp436
(lp437
F0.0
aF0.0
aF0.3606170453433023
aF0.9327139682710165
ababag1
(g2
g3
Ntp438
Rp439
(lp440
g1
(g7
g3
Ntp441
Rp442
(lp443
F-0.2759929116880038
aF-0.22467290156576022
aF0.0
abag1
(g11
g3
Ntp444
Rp445
(lp446
F0.0
aF0.0
aF0.36792725560376466
aF0.929854577116165
ababag1
(g2
g3
Ntp447
Rp448
(lp449
g1
(g7
g3
Ntp450
Rp451
(lp452
F-0.2724318790276127
aF-0.22897788384358045
aF0.0
abag1
(g11
g3
Ntp453
Rp454
(lp455
F0.0
aF0.0
aF0.37521479591900125
aF0.9269378927001863
ababag1
(g2
g3
Ntp456
Rp457
(lp458
g1
(g7
g3
Ntp459
Rp460
(lp461
F-0.2688037035225752
aF-0.23322643283416114
aF0.0
abag1
(g11
g3
Ntp462
Rp463
(lp464
F0.0
aF0.0
aF0.3824792172650889
aF0.923964094735442
ababag1
(g2
g3
Ntp465
Rp466
(lp467
g1
(g7
g3
Ntp468
Rp469
(lp470
F-0.2651092793634874
aF-0.2374175014512881
aF0.0
abag1
(g11
g3
Ntp471
Rp472
(lp473
F0.0
aF0.0
aF0.38972007204258635
aF0.9209333664533614
ababag1
(g2
g3
Ntp474
Rp475
(lp476
g1
(g7
g3
Ntp477
Rp478
(lp479
F-0.26134951706841436
aF-0.24155005677520877
aF0.0
abag1
(g11
g3
Ntp480
Rp481
(lp482
F0.0
aF0.0
aF0.39693691410411347
aF0.9178458945931521
ababag1
(g2
g3
Ntp483
Rp484
(lp485
g1
(g7
g3
Ntp486
Rp487
(lp488
F-0.2575253432584864
aF-0.2456230803072031
aF0.0
abag1
(g11
g3
Ntp489
Rp490
(lp491
F0.0
aF0.0
aF0.40412929878184045
aF0.9147018693902937
ababag1
(g2
g3
Ntp492
Rp493
(lp494
g1
(g7
g3
Ntp495
Rp496
(lp497
F-0.25363770042952655
aF-0.24963556822059985
aF0.0
abag1
(g11
g3
Ntp498
Rp499
(lp500
F0.0
aF0.0
aF0.4112967829148866
aF0.9115014845648166
ababag1
(g2
g3
Ntp501
Rp502
(lp503
g1
(g7
g3
Ntp504
Rp505
(lp506
F-0.24968754671976517
aF-0.25358653160817723
aF0.0
abag1
(g11
g3
Ntp507
Rp508
(lp509
F0.0
aF0.0
aF0.4184389248766252
aF0.908244937309366
ababag1
(g2
g3
Ntp510
Rp511
(lp512
g1
(g7
g3
Ntp513
Rp514
(lp515
F-0.24567585567370026
aF-0.25747499672588636
aF0.0
abag1
(g11
g3
Ntp516
Rp517
(lp518
F0.0
aF0.0
aF0.4255552846018951
aF0.904932428277051
ababag1
(g2
g3
Ntp519
Rp520
(lp521
g1
(g7
g3
Ntp522
Rp523
(lp524
F-0.24160361600215977
aF-0.2613000052328375
aF0.0
abag1
(g11
g3
Ntp525
Rp526
(lp527
F0.0
aF0.0
aF0.4326454236141149
aF0.9015641615690827
ababag1
(g2
g3
Ntp528
Rp529
(lp530
g1
(g7
g3
Ntp531
Rp532
(lp533
F-0.23747183133862657
aF-0.26506061442749074
aF0.0
abag1
(g11
g3
Ntp534
Rp535
(lp536
F0.0
aF0.0
aF0.4397089050523006
aF0.8981403447221971
ababag1
(g2
g3
Ntp537
Rp538
(lp539
g1
(g7
g3
Ntp540
Rp541
(lp542
F-0.23328151999188593
aF-0.2687558974799908
aF0.0
abag1
(g11
g3
Ntp543
Rp544
(lp545
F0.0
aF0.0
aF0.4467452936979817
aF0.8946611886958683
ababag1
(g2
g3
Ntp546
Rp547
(lp548
g1
(g7
g3
Ntp549
Rp550
(lp551
F-0.22903371469505546
aF-0.27238494366059207
aF0.0
abag1
(g11
g3
Ntp552
Rp553
(lp554
F0.0
aF0.0
aF0.4537541560020187
aF0.8911269078593103
ababag1
(g2
g3
Ntp555
Rp556
(lp557
g1
(g7
g3
Ntp558
Rp559
(lp560
F-0.22472946235106056
aF-0.2759468585641142
aF0.0
abag1
(g11
g3
Ntp561
Rp562
(lp563
F0.0
aF0.0
aF0.46073506011131515
aF0.8875377199782682
ababag1
(g2
g3
Ntp564
Rp565
(lp566
g1
(g7
g3
Ntp567
Rp568
(lp569
F-0.22036982377461753
aF-0.2794407643303746
aF0.0
abag1
(g11
g3
Ntp570
Rp571
(lp572
F0.0
aF0.0
aF0.46768757589542714
aF0.8838938462016007
ababag1
(g2
g3
Ntp573
Rp574
(lp575
g1
(g7
g3
Ntp576
Rp577
(lp578
F-0.2159558734307879
aF-0.2828657998605443
aF0.0
abag1
(g11
g3
Ntp579
Rp580
(lp581
F0.0
aF0.0
aF0.47461127497306566
aF0.8801955110476541
ababag1
(g2
g3
Ntp582
Rp583
(lp584
g1
(g7
g3
Ntp585
Rp586
(lp587
F-0.21148869917016855
aF-0.28622112102937114
aF0.0
abag1
(g11
g3
Ntp588
Rp589
(lp590
F0.0
aF0.0
aF0.4815057307384917
aF0.8764429423904281
ababag1
(g2
g3
Ntp591
Rp592
(lp593
g1
(g7
g3
Ntp594
Rp595
(lp596
F-0.20696940196078287
aF-0.2895059008932216
aF0.0
abag1
(g11
g3
Ntp597
Rp598
(lp599
F0.0
aF0.0
aF0.488370518387801
aF0.8726363714455354
ababag1
(g2
g3
Ntp600
Rp601
(lp602
g1
(g7
g3
Ntp603
Rp604
(lp605
F-0.20239909561673944
aF-0.2927193298938865
aF0.0
abag1
(g11
g3
Ntp606
Rp607
(lp608
F0.0
aF0.0
aF0.4952052149450995
aF0.8687760327559559
ababag1
(g2
g3
Ntp609
Rp610
(lp611
g1
(g7
g3
Ntp612
Rp613
(lp614
F-0.19777890652372374
aF-0.2958606160581028
aF0.0
abag1
(g11
g3
Ntp615
Rp616
(lp617
F0.0
aF0.0
aF0.502009399288564
aF0.8648621641775844
ababag1
(g2
g3
Ntp618
Rp619
(lp620
g1
(g7
g3
Ntp621
Rp622
(lp623
F-0.19310997336139263
aF-0.2989289851927414
aF0.0
abag1
(g11
g3
Ntp624
Rp625
(lp626
F0.0
aF0.0
aF0.5087826521763906
aF0.8608950068645757
ababag1
(g2
g3
Ntp627
Rp628
(lp629
g1
(g7
g3
Ntp630
Rp631
(lp632
F-0.18839344682273806
aF-0.30192368107561246
aF0.0
abag1
(g11
g3
Ntp633
Rp634
(lp635
F0.0
aF0.0
aF0.5155245562726261
aF0.8568748052544852
ababag1
(g2
g3
Ntp636
Rp637
(lp638
g1
(g7
g3
Ntp639
Rp640
(lp641
F-0.1836304893304904
aF-0.3048439656418422
aF0.0
abag1
(g11
g3
Ntp642
Rp643
(lp644
F0.0
aF0.0
aF0.5222346961728819
aF0.8528018070532084
ababag1
(g2
g3
Ntp645
Rp646
(lp647
g1
(g7
g3
Ntp648
Rp649
(lp650
F-0.17882227475063062
aF-0.3076891191657741
aF0.0
abag1
(g11
g3
Ntp651
Rp652
(lp653
F0.0
aF0.0
aF0.5289126584299302
aF0.848676263219718
ababag1
(g2
g3
Ntp654
Rp655
(lp656
g1
(g7
g3
Ntp657
Rp658
(lp659
F-0.17396998810308284
aF-0.3104584404383511
aF0.0
abag1
(g11
g3
Ntp660
Rp661
(lp662
F0.0
aF0.0
aF0.5355580315791774
aF0.8444984279506013
ababag1
(g2
g3
Ntp663
Rp664
(lp665
g1
(g7
g3
Ntp666
Rp667
(lp668
F-0.1690748252696568
aF-0.3131512469399332
aF0.0
abag1
(g11
g3
Ntp669
Rp670
(lp671
F0.0
aF0.0
aF0.5421704061640178
aF0.8402685586643975
ababag1
(g2
g3
Ntp672
Rp673
(lp674
g1
(g7
g3
Ntp675
Rp676
(lp677
F-0.1641379926993145
aF-0.3157668750085097
aF0.0
abag1
(g11
g3
Ntp678
Rp679
(lp680
F0.0
aF0.0
aF0.5487493747610613
aF0.8359869159857374
ababag1
(g2
g3
Ntp681
Rp682
(lp683
g1
(g7
g3
Ntp684
Rp685
(lp686
F-0.15916070711083152
aF-0.31830468000326373
aF0.0
abag1
(g11
g3
Ntp687
Rp688
(lp689
F0.0
aF0.0
aF0.5552945320052384
aF0.8316537637292838
ababag1
(g2
g3
Ntp690
Rp691
(lp692
g1
(g7
g3
Ntp693
Rp694
(lp695
F-0.15414419519292827
aF-0.32076403646344837
aF0.0
abag1
(g11
g3
Ntp696
Rp697
(lp698
F0.0
aF0.0
aF0.5618054746147749
aF0.8272693688834777
ababag1
(g2
g3
Ntp699
Rp700
(lp701
g1
(g7
g3
Ntp702
Rp703
(lp704
F-0.14908969330194277
aF-0.3231443382625365
aF0.0
abag1
(g11
g3
Ntp705
Rp706
(lp707
F0.0
aF0.0
aF0.5682818014160423
aF0.8228340015940869
ababag1
(g2
g3
Ntp708
Rp709
(lp710
g1
(g7
g3
Ntp711
Rp712
(lp713
F-0.14399844715712226
aF-0.3254449987576049
aF0.0
abag1
(g11
g3
Ntp714
Rp715
(lp716
F0.0
aF0.0
aF0.5747231133682745
aF0.8183479351475614
ababag1
(g2
g3
Ntp717
Rp718
(lp719
g1
(g7
g3
Ntp720
Rp721
(lp722
F-0.13887171153360595
aF-0.3276654509339166
aF0.0
abag1
(g11
g3
Ntp723
Rp724
(lp725
F0.0
aF0.0
aF0.5811290135881559
aF0.8138114459541945
ababag1
(g2
g3
Ntp726
Rp727
(lp728
g1
(g7
g3
Ntp729
Rp730
(lp731
F-0.1337107499531769
aF-0.3298051475446661
aF0.0
abag1
(g11
g3
Ntp732
Rp733
(lp734
F0.0
aF0.0
aF0.587499107374275
aF0.8092248135310917
ababag1
(g2
g3
Ntp735
Rp736
(lp737
g1
(g7
g3
Ntp738
Rp739
(lp740
F-0.12851683437285724
aF-0.33186356124585237
aF0.0
abag1
(g11
g3
Ntp741
Rp742
(lp743
F0.0
aF0.0
aF0.5938330022314442
aF0.8045883204849481
ababag1
(g2
g3
Ntp744
Rp745
(lp746
g1
(g7
g3
Ntp747
Rp748
(lp749
F-0.12329124487142559
aF-0.33384018472624616
aF0.0
abag1
(g11
g3
Ntp750
Rp751
(lp752
F0.0
aF0.0
aF0.6001303078948833
aF0.7999022524946361
ababag1
(g2
g3
Ntp753
Rp754
(lp755
g1
(g7
g3
Ntp756
Rp757
(lp758
F-0.11803526933393146
aF-0.3357345308324216
aF0.0
abag1
(g11
g3
Ntp759
Rp760
(lp761
F0.0
aF0.0
aF0.6063906363542664
aF0.7951668982936022
ababag1
(g2
g3
Ntp762
Rp763
(lp764
g1
(g7
g3
Ntp765
Rp766
(lp767
F-0.11275020313428744
aF-0.33754613268881767
aF0.0
abag1
(g11
g3
Ntp768
Rp769
(lp770
F0.0
aF0.0
aF0.6126136018776281
aF0.7903825496520775
ababag1
(g2
g3
Ntp771
Rp772
(lp773
g1
(g7
g3
Ntp774
Rp775
(lp776
F-0.10743734881601377
aF-0.33927454381280386
aF0.0
abag1
(g11
g3
Ntp777
Rp778
(lp779
F0.0
aF0.0
aF0.6187988210351325
aF0.7855495013590996
ababag1
(g2
g3
Ntp780
Rp781
(lp782
g1
(g7
g3
Ntp783
Rp784
(lp785
F-0.10209801577121769
aF-0.34091933822471876
aF0.0
abag1
(g11
g3
Ntp786
Rp787
(lp788
F0.0
aF0.0
aF0.6249459127226953
aF0.7806680512043498
ababag1
(g2
g3
Ntp789
Rp790
(lp791
g1
(g7
g3
Ntp792
Rp793
(lp794
F-0.09673351991788348
aF-0.34248011055285593
aF0.0
abag1
(g11
g3
Ntp795
Rp796
(lp797
F0.0
aF0.0
aF0.6310544981854684
aF0.7757384999598038
ababag1
(g2
g3
Ntp798
Rp799
(lp800
g1
(g7
g3
Ntp801
Rp802
(lp803
F-0.09134518337555539
aF-0.3439564761333709
aF0.0
abag1
(g11
g3
Ntp804
Rp805
(lp806
F0.0
aF0.0
aF0.6371242010411764
aF0.7707611513612
ababag1
(g2
g3
Ntp807
Rp808
(lp809
g1
(g7
g3
Ntp810
Rp811
(lp812
F-0.08593433413949081
aF-0.34534807110508425
aF0.0
abag1
(g11
g3
Ntp813
Rp814
(lp815
F0.0
aF0.0
aF0.6431546473033062
aF0.7657363120893249
ababag1
(g2
g3
Ntp816
Rp817
(lp818
g1
(g7
g3
Ntp819
Rp820
(lp821
F-0.0805023057533668
aF-0.34665455249915794
aF0.0
abag1
(g11
g3
Ntp822
Rp823
(lp824
F0.0
aF0.0
aF0.6491454654041512
aF0.7606642917511167
ababag1
(g2
g3
Ntp825
Rp826
(lp827
g1
(g7
g3
Ntp828
Rp829
(lp830
F-0.07505043698061774
aF-0.3478755983236224
aF0.0
abag1
(g11
g3
Ntp831
Rp832
(lp833
F0.0
aF0.0
aF0.6550962862177062
aF0.7555454028605887
ababag1
(g2
g3
Ntp834
Rp835
(lp836
g1
(g7
g3
Ntp837
Rp838
(lp839
F-0.06958007147448785
aF-0.3490109076427342
aF0.0
abag1
(g11
g3
Ntp840
Rp841
(lp842
F0.0
aF0.0
aF0.6610067430824099
aF0.7503799608195736
ababag1
(g2
g3
Ntp843
Rp844
(lp845
g1
(g7
g3
Ntp846
Rp847
(lp848
F-0.0640925574468774
aF-0.3500602006511433
aF0.0
abag1
(g11
g3
Ntp849
Rp850
(lp851
F0.0
aF0.0
aF0.666876471823738
aF0.7451682838982904
ababag1
(g2
g3
Ntp852
Rp853
(lp854
g1
(g7
g3
Ntp855
Rp856
(lp857
F-0.05858924733606625
aF-0.3510232187428536
aF0.0
abag1
(g11
g3
Ntp858
Rp859
(lp860
F0.0
aF0.0
aF0.6727051107766412
aF0.7399106932157332
ababag1
(g2
g3
Ntp861
Rp862
(lp863
g1
(g7
g3
Ntp864
Rp865
(lp866
F-0.05307149747339529
aF-0.3518997245749581
aF0.0
abag1
(g11
g3
Ntp867
Rp868
(lp869
F0.0
aF0.0
aF0.6784923008078292
aF0.7346075127198864
ababag1
(g2
g3
Ntp870
Rp871
(lp872
g1
(g7
g3
Ntp873
Rp874
(lp875
F-0.04754066774898898
aF-0.3526895021261339
aF0.0
abag1
(g11
g3
Ntp876
Rp877
(lp878
F0.0
aF0.0
aF0.6842376853378995
aF0.7292590691677641
ababag1
(g2
g3
Ntp879
Rp880
(lp881
g1
(g7
g3
Ntp882
Rp883
(lp884
F-0.041998121276599756
aF-0.3533923567498822
aF0.0
abag1
(g11
g3
Ntp885
Rp886
(lp887
F0.0
aF0.0
aF0.6899409103633076
aF0.7238656921052761
ababag1
(g2
g3
Ntp888
Rp889
(lp890
g1
(g7
g3
Ntp891
Rp892
(lp893
F-0.03644522405765929
aF-0.35400811522250025
aF0.0
abag1
(g11
g3
Ntp894
Rp895
(lp896
F0.0
aF0.0
aF0.695601624478179
aF0.7184277138469245
ababag1
(g2
g3
Ntp897
Rp898
(lp899
g1
(g7
g3
Ntp900
Rp901
(lp902
F-0.03088334464461671
aF-0.3545366257857738
aF0.0
abag1
(g11
g3
Ntp903
Rp904
(lp905
F0.0
aF0.0
aF0.7012194788959619
aF0.7129454694553263
ababag1
(g2
g3
Ntp906
Rp907
(lp908
g1
(g7
g3
Ntp909
Rp910
(lp911
F-0.025313853803649426
aF-0.354977758184379
aF0.0
abag1
(g11
g3
Ntp912
Rp913
(lp914
F0.0
aF0.0
aF0.7067941274709166
aF0.7074192967205698
ababa.